target datalayout = "e-m:e-p270:32:32-p271:32:32-p272:64:64-i64:64-i128:128-f80:128-n8:16:32:64-S128"
target triple = "x86_64-pc-linux-gnu"

%struct.block_handler = type { ptr, ptr }

@.str = private unnamed_addr constant [1 x i8] zeroinitializer, align 1
@.str.1 = private unnamed_addr constant [17 x i8] c"wiretap/pcapng.c\00", align 1
@__func__.register_pcapng_block_type_handler = private unnamed_addr constant [35 x i8] c"register_pcapng_block_type_handler\00", align 1
@.str.2 = private unnamed_addr constant [61 x i8] c"Attempt to register plugin for block type 0x%08x not allowed\00", align 1
@.str.3 = private unnamed_addr constant [70 x i8] c"Attempt to register plugin for reserved block type 0x%08x not allowed\00", align 1
@block_handlers = internal global ptr null, align 8

; Function Attrs: nounwind uwtable
define void @register_pcapng_block_type_handler(i32 noundef %0, ptr noundef %1, ptr noundef %2) #0 {
  %4 = alloca i32, align 4
  %5 = alloca ptr, align 8
  %6 = alloca ptr, align 8
  %7 = alloca ptr, align 8
  store i32 %0, ptr %4, align 4
  store ptr %1, ptr %5, align 8
  store ptr %2, ptr %6, align 8
  %8 = load i32, ptr %4, align 4
  switch i32 %8, label %14 [
    i32 168627466, label %9
    i32 1, label %9
    i32 2, label %9
    i32 3, label %9
    i32 4, label %9
    i32 5, label %9
    i32 6, label %9
    i32 10, label %9
    i32 2989, label %9
    i32 1073744813, label %9
    i32 513, label %9
    i32 514, label %9
    i32 515, label %9
    i32 516, label %9
    i32 517, label %9
    i32 518, label %9
    i32 519, label %9
    i32 520, label %9
    i32 521, label %9
    i32 528, label %9
    i32 529, label %9
    i32 530, label %9
    i32 531, label %9
    i32 532, label %9
    i32 533, label %9
    i32 534, label %9
    i32 535, label %9
    i32 536, label %9
    i32 537, label %9
    i32 544, label %9
    i32 9, label %9
    i32 7, label %13
    i32 8, label %13
  ]

9:                                                ; preds = %3, %3, %3, %3, %3, %3, %3, %3, %3, %3, %3, %3, %3, %3, %3, %3, %3, %3, %3, %3, %3, %3, %3, %3, %3, %3, %3, %3, %3, %3, %3
  br label %10

10:                                               ; preds = %9
  %11 = load i32, ptr %4, align 4
  call void (ptr, i32, ptr, i64, ptr, ptr, ...) @ws_log_full(ptr noundef @.str, i32 noundef 5, ptr noundef @.str.1, i64 noundef 330, ptr noundef @__func__.register_pcapng_block_type_handler, ptr noundef @.str.2, i32 noundef %11)
  br label %12

12:                                               ; preds = %10
  br label %42

13:                                               ; preds = %3, %3
  br label %23

14:                                               ; preds = %3
  %15 = load i32, ptr %4, align 4
  %16 = and i32 %15, -2147483648
  %17 = icmp ne i32 %16, 0
  br i1 %17, label %22, label %18

18:                                               ; preds = %14
  br label %19

19:                                               ; preds = %18
  %20 = load i32, ptr %4, align 4
  call void (ptr, i32, ptr, i64, ptr, ptr, ...) @ws_log_full(ptr noundef @.str, i32 noundef 5, ptr noundef @.str.1, i64 noundef 353, ptr noundef @__func__.register_pcapng_block_type_handler, ptr noundef @.str.3, i32 noundef %20)
  br label %21

21:                                               ; preds = %19
  br label %42

22:                                               ; preds = %14
  br label %23

23:                                               ; preds = %22, %13
  %24 = load ptr, ptr @block_handlers, align 8
  %25 = icmp eq ptr %24, null
  br i1 %25, label %26, label %28

26:                                               ; preds = %23
  %27 = call ptr @g_hash_table_new_full(ptr noundef @g_direct_hash, ptr noundef @g_direct_equal, ptr noundef null, ptr noundef @g_free)
  store ptr %27, ptr @block_handlers, align 8
  br label %28

28:                                               ; preds = %26, %23
  %29 = call noalias ptr @g_malloc_n(i64 noundef 1, i64 noundef 16) #10
  store ptr %29, ptr %7, align 8
  %30 = load ptr, ptr %5, align 8
  %31 = load ptr, ptr %7, align 8
  %32 = getelementptr inbounds %struct.block_handler, ptr %31, i32 0, i32 0
  store ptr %30, ptr %32, align 8
  %33 = load ptr, ptr %6, align 8
  %34 = load ptr, ptr %7, align 8
  %35 = getelementptr inbounds %struct.block_handler, ptr %34, i32 0, i32 1
  store ptr %33, ptr %35, align 8
  %36 = load ptr, ptr @block_handlers, align 8
  %37 = load i32, ptr %4, align 4
  %38 = zext i32 %37 to i64
  %39 = inttoptr i64 %38 to ptr
  %40 = load ptr, ptr %7, align 8
  %41 = call i32 @g_hash_table_insert(ptr noundef %36, ptr noundef %39, ptr noundef %40)
  br label %42

42:                                               ; preds = %28, %21, %12
  ret void
}