; Function Attrs: nounwind uwtable
define void @register_pcapng_block_type_handler(i32 noundef %0, ptr noundef %1, ptr noundef %2) local_unnamed_addr #0 {
  switch i32 %0, label %5 [
    i32 168627466, label %4
    i32 1, label %4
    i32 2, label %4
    i32 3, label %4
    i32 4, label %4
    i32 5, label %4
    i32 6, label %4
    i32 10, label %4
    i32 2989, label %4
    i32 1073744813, label %4
    i32 513, label %4
    i32 514, label %4
    i32 515, label %4
    i32 516, label %4
    i32 517, label %4
    i32 518, label %4
    i32 519, label %4
    i32 520, label %4
    i32 521, label %4
    i32 528, label %4
    i32 529, label %4
    i32 530, label %4
    i32 531, label %4
    i32 532, label %4
    i32 533, label %4
    i32 534, label %4
    i32 535, label %4
    i32 536, label %4
    i32 537, label %4
    i32 544, label %4
    i32 9, label %4
    i32 7, label %7
    i32 8, label %7
  ]

4:                                                ; preds = %3, %3, %3, %3, %3, %3, %3, %3, %3, %3, %3, %3, %3, %3, %3, %3, %3, %3, %3, %3, %3, %3, %3, %3, %3, %3, %3, %3, %3, %3, %3
  tail call void (ptr, i32, ptr, i64, ptr, ptr, ...) @ws_log_full(ptr noundef nonnull @.str, i32 noundef 5, ptr noundef nonnull @.str.1, i64 noundef 330, ptr noundef nonnull @__func__.register_pcapng_block_type_handler, ptr noundef nonnull @.str.2, i32 noundef %0) #16
  br label %19

5:                                                ; preds = %3
  %.not = icmp sgt i32 %0, -1
  br i1 %.not, label %6, label %7

6:                                                ; preds = %5
  tail call void (ptr, i32, ptr, i64, ptr, ptr, ...) @ws_log_full(ptr noundef nonnull @.str, i32 noundef 5, ptr noundef nonnull @.str.1, i64 noundef 353, ptr noundef nonnull @__func__.register_pcapng_block_type_handler, ptr noundef nonnull @.str.3, i32 noundef %0) #16
  br label %19

7:                                                ; preds = %5, %3, %3
  %8 = load ptr, ptr @block_handlers, align 8
  %9 = icmp eq ptr %8, null
  br i1 %9, label %10, label %12

10:                                               ; preds = %7
  %11 = tail call ptr @g_hash_table_new_full(ptr noundef nonnull @g_direct_hash, ptr noundef nonnull @g_direct_equal, ptr noundef null, ptr noundef nonnull @g_free) #16
  store ptr %11, ptr @block_handlers, align 8
  br label %12

12:                                               ; preds = %10, %7
  %13 = tail call noalias dereferenceable_or_null(16) ptr @g_malloc_n(i64 noundef 1, i64 noundef 16) #17
  store ptr %1, ptr %13, align 8
  %14 = getelementptr inbounds nuw i8, ptr %13, i64 8
  store ptr %2, ptr %14, align 8
  %15 = load ptr, ptr @block_handlers, align 8
  %16 = zext i32 %0 to i64
  %17 = inttoptr i64 %16 to ptr
  %18 = tail call i32 @g_hash_table_insert(ptr noundef %15, ptr noundef %17, ptr noundef nonnull %13) #16
  br label %19

19:                                               ; preds = %12, %6, %4
  ret void
}